target datalayout = "e-m:e-p270:32:32-p271:32:32-p272:64:64-i64:64-i128:128-f80:128-n8:16:32:64-S128"
target triple = "x86_64-pc-linux-gnu"

%struct.dtlink_s_ = type { ptr, %union.anon }
%union.anon = type { ptr }
%struct.pointf_s = type { double, double }
%struct.Agobj_s = type { %struct.Agtag_s, ptr }
%struct.Agtag_s = type { i32, i64 }
%struct.Agedgeinfo_t = type { %struct.Agrec_s, ptr, %struct.port, %struct.port, ptr, ptr, ptr, ptr, i8, i8, i8, i8, i8, ptr, ptr, double, double, %struct.Ppoly_t, i8, i8, i16, i32, i32, i32, i16, i32, ptr }
%struct.Agrec_s = type { ptr, ptr }
%struct.port = type { %struct.pointf_s, double, ptr, i8, i8, i8, i8, i8, i8, ptr }
%struct.Ppoly_t = type { ptr, i64 }
%struct.Agedge_s = type { %struct.Agobj_s, %struct.dtlink_s_, %struct.dtlink_s_, ptr }
%struct.boxf = type { %struct.pointf_s, %struct.pointf_s }
%struct.Agnodeinfo_t = type { %struct.Agrec_s, ptr, ptr, %struct.pointf_s, double, double, %struct.boxf, double, double, double, double, double, ptr, ptr, ptr, i8, i8, i8, i8, i32, i32, i32, ptr, double, i8, i8, ptr, ptr, i8, i64, i8, i8, i8, ptr, ptr, %struct.elist, %struct.elist, %struct.elist, %struct.elist, %struct.elist, ptr, i32, ptr, i32, i32, double, %struct.elist, %struct.elist, %struct.elist, %struct.elist, ptr, i32, i32, i32, [1 x double] }
%struct.elist = type { ptr, i64 }

; Function Attrs: inlinehint nounwind uwtable
define internal { double, double } @add_pointf(double %0, double %1, double %2, double %3) #4 {
  %5 = alloca %struct.pointf_s, align 8
  %6 = alloca %struct.pointf_s, align 8
  %7 = alloca %struct.pointf_s, align 8
  %8 = getelementptr inbounds nuw { double, double }, ptr %6, i32 0, i32 0
  store double %0, ptr %8, align 8
  %9 = getelementptr inbounds nuw { double, double }, ptr %6, i32 0, i32 1
  store double %1, ptr %9, align 8
  %10 = getelementptr inbounds nuw { double, double }, ptr %7, i32 0, i32 0
  store double %2, ptr %10, align 8
  %11 = getelementptr inbounds nuw { double, double }, ptr %7, i32 0, i32 1
  store double %3, ptr %11, align 8
  %12 = getelementptr inbounds nuw %struct.pointf_s, ptr %6, i32 0, i32 0
  %13 = load double, ptr %12, align 8, !tbaa !76
  %14 = getelementptr inbounds nuw %struct.pointf_s, ptr %7, i32 0, i32 0
  %15 = load double, ptr %14, align 8, !tbaa !76
  %16 = fadd double %13, %15
  %17 = getelementptr inbounds nuw %struct.pointf_s, ptr %5, i32 0, i32 0
  store double %16, ptr %17, align 8, !tbaa !76
  %18 = getelementptr inbounds nuw %struct.pointf_s, ptr %6, i32 0, i32 1
  %19 = load double, ptr %18, align 8, !tbaa !78
  %20 = getelementptr inbounds nuw %struct.pointf_s, ptr %7, i32 0, i32 1
  %21 = load double, ptr %20, align 8, !tbaa !78
  %22 = fadd double %19, %21
  %23 = getelementptr inbounds nuw %struct.pointf_s, ptr %5, i32 0, i32 1
  store double %22, ptr %23, align 8, !tbaa !78
  %24 = load { double, double }, ptr %5, align 8
  ret { double, double } %24
}

; Function Attrs: nounwind uwtable
define { ptr, i64 } @getPath(ptr noundef %0, ptr noundef %1, i1 noundef zeroext %2) #0 {
  %4 = alloca %struct.Ppoly_t, align 8
  %5 = alloca ptr, align 8
  %6 = alloca ptr, align 8
  %7 = alloca i8, align 1
  %8 = alloca i32, align 4
  %9 = alloca i32, align 4
  %10 = alloca %struct.pointf_s, align 8
  %11 = alloca %struct.pointf_s, align 8
  %12 = alloca %struct.pointf_s, align 8
  %13 = alloca %struct.pointf_s, align 8
  store ptr %0, ptr %5, align 8, !tbaa !44
  store ptr %1, ptr %6, align 8, !tbaa !106
  %14 = zext i1 %2 to i8
  store i8 %14, ptr %7, align 1, !tbaa !47
  call void @llvm.lifetime.start.p0(i64 4, ptr %8) #11
  call void @llvm.lifetime.start.p0(i64 4, ptr %9) #11
  call void @llvm.lifetime.start.p0(i64 16, ptr %10) #11
  call void @llvm.lifetime.start.p0(i64 16, ptr %11) #11
  call void @llvm.lifetime.start.p0(i64 16, ptr %12) #11
  %15 = load ptr, ptr %5, align 8, !tbaa !44
  %16 = getelementptr inbounds nuw %struct.Agobj_s, ptr %15, i32 0, i32 0
  %17 = load i32, ptr %16, align 8
  %18 = and i32 %17, 3
  %19 = icmp eq i32 %18, 3
  br i1 %19, label %20, label %22

20:                                               ; preds = %3
  %21 = load ptr, ptr %5, align 8, !tbaa !44
  br label %25

22:                                               ; preds = %3
  %23 = load ptr, ptr %5, align 8, !tbaa !44
  %24 = getelementptr inbounds %struct.Agedge_s, ptr %23, i64 1
  br label %25

25:                                               ; preds = %22, %20
  %26 = phi ptr [ %21, %20 ], [ %24, %22 ]
  %27 = getelementptr inbounds nuw %struct.Agedge_s, ptr %26, i32 0, i32 3
  %28 = load ptr, ptr %27, align 8, !tbaa !51
  %29 = getelementptr inbounds nuw %struct.Agobj_s, ptr %28, i32 0, i32 1
  %30 = load ptr, ptr %29, align 8, !tbaa !21
  %31 = getelementptr inbounds nuw %struct.Agnodeinfo_t, ptr %30, i32 0, i32 3
  %32 = load ptr, ptr %5, align 8, !tbaa !44
  %33 = getelementptr inbounds nuw %struct.Agobj_s, ptr %32, i32 0, i32 1
  %34 = load ptr, ptr %33, align 8, !tbaa !21
  %35 = getelementptr inbounds nuw %struct.Agedgeinfo_t, ptr %34, i32 0, i32 2
  %36 = getelementptr inbounds nuw %struct.port, ptr %35, i32 0, i32 0
  %37 = getelementptr inbounds nuw { double, double }, ptr %31, i32 0, i32 0
  %38 = load double, ptr %37, align 8
  %39 = getelementptr inbounds nuw { double, double }, ptr %31, i32 0, i32 1
  %40 = load double, ptr %39, align 8
  %41 = getelementptr inbounds nuw { double, double }, ptr %36, i32 0, i32 0
  %42 = load double, ptr %41, align 8
  %43 = getelementptr inbounds nuw { double, double }, ptr %36, i32 0, i32 1
  %44 = load double, ptr %43, align 8
  %45 = call { double, double } @add_pointf(double %38, double %40, double %42, double %44)
  %46 = getelementptr inbounds nuw { double, double }, ptr %12, i32 0, i32 0
  %47 = extractvalue { double, double } %45, 0
  store double %47, ptr %46, align 8
  %48 = getelementptr inbounds nuw { double, double }, ptr %12, i32 0, i32 1
  %49 = extractvalue { double, double } %45, 1
  store double %49, ptr %48, align 8
  call void @llvm.memcpy.p0.p0.i64(ptr align 8 %10, ptr align 8 %12, i64 16, i1 false), !tbaa.struct !74
  call void @llvm.lifetime.end.p0(i64 16, ptr %12) #11
  call void @llvm.lifetime.start.p0(i64 16, ptr %13) #11
  %50 = load ptr, ptr %5, align 8, !tbaa !44
  %51 = getelementptr inbounds nuw %struct.Agobj_s, ptr %50, i32 0, i32 0
  %52 = load i32, ptr %51, align 8
  %53 = and i32 %52, 3
  %54 = icmp eq i32 %53, 2
  br i1 %54, label %55, label %57

55:                                               ; preds = %25
  %56 = load ptr, ptr %5, align 8, !tbaa !44
  br label %60

57:                                               ; preds = %25
  %58 = load ptr, ptr %5, align 8, !tbaa !44
  %59 = getelementptr inbounds %struct.Agedge_s, ptr %58, i64 -1
  br label %60

60:                                               ; preds = %57, %55
  %61 = phi ptr [ %56, %55 ], [ %59, %57 ]
  %62 = getelementptr inbounds nuw %struct.Agedge_s, ptr %61, i32 0, i32 3
  %63 = load ptr, ptr %62, align 8, !tbaa !51
  %64 = getelementptr inbounds nuw %struct.Agobj_s, ptr %63, i32 0, i32 1
  %65 = load ptr, ptr %64, align 8, !tbaa !21
  %66 = getelementptr inbounds nuw %struct.Agnodeinfo_t, ptr %65, i32 0, i32 3
  %67 = load ptr, ptr %5, align 8, !tbaa !44
  %68 = getelementptr inbounds nuw %struct.Agobj_s, ptr %67, i32 0, i32 1
  %69 = load ptr, ptr %68, align 8, !tbaa !21
  %70 = getelementptr inbounds nuw %struct.Agedgeinfo_t, ptr %69, i32 0, i32 3
  %71 = getelementptr inbounds nuw %struct.port, ptr %70, i32 0, i32 0
  %72 = getelementptr inbounds nuw { double, double }, ptr %66, i32 0, i32 0
  %73 = load double, ptr %72, align 8
  %74 = getelementptr inbounds nuw { double, double }, ptr %66, i32 0, i32 1
  %75 = load double, ptr %74, align 8
  %76 = getelementptr inbounds nuw { double, double }, ptr %71, i32 0, i32 0
  %77 = load double, ptr %76, align 8
  %78 = getelementptr inbounds nuw { double, double }, ptr %71, i32 0, i32 1
  %79 = load double, ptr %78, align 8
  %80 = call { double, double } @add_pointf(double %73, double %75, double %77, double %79)
  %81 = getelementptr inbounds nuw { double, double }, ptr %13, i32 0, i32 0
  %82 = extractvalue { double, double } %80, 0
  store double %82, ptr %81, align 8
  %83 = getelementptr inbounds nuw { double, double }, ptr %13, i32 0, i32 1
  %84 = extractvalue { double, double } %80, 1
  store double %84, ptr %83, align 8
  call void @llvm.memcpy.p0.p0.i64(ptr align 8 %11, ptr align 8 %13, i64 16, i1 false), !tbaa.struct !74
  call void @llvm.lifetime.end.p0(i64 16, ptr %13) #11
  store i32 -1111, ptr %9, align 4, !tbaa !45
  store i32 -1111, ptr %8, align 4, !tbaa !45
  %85 = load i8, ptr %7, align 1, !tbaa !47, !range !48, !noundef !49
  %86 = trunc i8 %85 to i1
  br i1 %86, label %87, label %124

87:                                               ; preds = %60
  %88 = load ptr, ptr %5, align 8, !tbaa !44
  %89 = getelementptr inbounds nuw %struct.Agobj_s, ptr %88, i32 0, i32 0
  %90 = load i32, ptr %89, align 8
  %91 = and i32 %90, 3
  %92 = icmp eq i32 %91, 3
  br i1 %92, label %93, label %95

93:                                               ; preds = %87
  %94 = load ptr, ptr %5, align 8, !tbaa !44
  br label %98

95:                                               ; preds = %87
  %96 = load ptr, ptr %5, align 8, !tbaa !44
  %97 = getelementptr inbounds %struct.Agedge_s, ptr %96, i64 1
  br label %98

98:                                               ; preds = %95, %93
  %99 = phi ptr [ %94, %93 ], [ %97, %95 ]
  %100 = getelementptr inbounds nuw %struct.Agedge_s, ptr %99, i32 0, i32 3
  %101 = load ptr, ptr %100, align 8, !tbaa !51
  %102 = getelementptr inbounds nuw %struct.Agobj_s, ptr %101, i32 0, i32 1
  %103 = load ptr, ptr %102, align 8, !tbaa !21
  %104 = getelementptr inbounds nuw %struct.Agnodeinfo_t, ptr %103, i32 0, i32 52
  %105 = load i32, ptr %104, align 4, !tbaa !108
  store i32 %105, ptr %8, align 4, !tbaa !45
  %106 = load ptr, ptr %5, align 8, !tbaa !44
  %107 = getelementptr inbounds nuw %struct.Agobj_s, ptr %106, i32 0, i32 0
  %108 = load i32, ptr %107, align 8
  %109 = and i32 %108, 3
  %110 = icmp eq i32 %109, 2
  br i1 %110, label %111, label %113

111:                                              ; preds = %98
  %112 = load ptr, ptr %5, align 8, !tbaa !44
  br label %116

113:                                              ; preds = %98
  %114 = load ptr, ptr %5, align 8, !tbaa !44
  %115 = getelementptr inbounds %struct.Agedge_s, ptr %114, i64 -1
  br label %116

116:                                              ; preds = %113, %111
  %117 = phi ptr [ %112, %111 ], [ %115, %113 ]
  %118 = getelementptr inbounds nuw %struct.Agedge_s, ptr %117, i32 0, i32 3
  %119 = load ptr, ptr %118, align 8, !tbaa !51
  %120 = getelementptr inbounds nuw %struct.Agobj_s, ptr %119, i32 0, i32 1
  %121 = load ptr, ptr %120, align 8, !tbaa !21
  %122 = getelementptr inbounds nuw %struct.Agnodeinfo_t, ptr %121, i32 0, i32 52
  %123 = load i32, ptr %122, align 4, !tbaa !108
  store i32 %123, ptr %9, align 4, !tbaa !45
  br label %124

124:                                              ; preds = %116, %60
  %125 = load ptr, ptr %6, align 8, !tbaa !106
  %126 = load i32, ptr %8, align 4, !tbaa !45
  %127 = load i32, ptr %9, align 4, !tbaa !45
  %128 = getelementptr inbounds nuw { double, double }, ptr %10, i32 0, i32 0
  %129 = load double, ptr %128, align 8
  %130 = getelementptr inbounds nuw { double, double }, ptr %10, i32 0, i32 1
  %131 = load double, ptr %130, align 8
  %132 = getelementptr inbounds nuw { double, double }, ptr %11, i32 0, i32 0
  %133 = load double, ptr %132, align 8
  %134 = getelementptr inbounds nuw { double, double }, ptr %11, i32 0, i32 1
  %135 = load double, ptr %134, align 8
  call void @Pobspath(ptr noundef %125, double %129, double %131, i32 noundef %126, double %133, double %135, i32 noundef %127, ptr noundef %4)
  call void @llvm.lifetime.end.p0(i64 16, ptr %11) #11
  call void @llvm.lifetime.end.p0(i64 16, ptr %10) #11
  call void @llvm.lifetime.end.p0(i64 4, ptr %9) #11
  call void @llvm.lifetime.end.p0(i64 4, ptr %8) #11
  %136 = load { ptr, i64 }, ptr %4, align 8
  ret { ptr, i64 } %136
}