; Function Attrs: nounwind uwtable
define { ptr, i64 } @getPath(ptr noundef readonly captures(none) %0, ptr noundef %1, i1 noundef zeroext %2) local_unnamed_addr #3 {
  %4 = alloca %struct.Ppoly_t, align 8
  %5 = load i32, ptr %0, align 8
  %6 = and i32 %5, 3
  %7 = icmp eq i32 %6, 3
  %.idx = select i1 %7, i64 0, i64 64
  %8 = getelementptr inbounds nuw i8, ptr %0, i64 %.idx
  %9 = getelementptr inbounds nuw i8, ptr %8, i64 56
  %10 = load ptr, ptr %9, align 8, !tbaa !48
  %11 = getelementptr inbounds nuw i8, ptr %10, i64 16
  %12 = load ptr, ptr %11, align 8, !tbaa !20
  %13 = getelementptr inbounds nuw i8, ptr %12, i64 32
  %14 = getelementptr inbounds nuw i8, ptr %0, i64 16
  %15 = load ptr, ptr %14, align 8, !tbaa !20
  %16 = getelementptr inbounds nuw i8, ptr %15, i64 24
  %17 = load double, ptr %13, align 8
  %18 = getelementptr inbounds nuw i8, ptr %12, i64 40
  %19 = load double, ptr %18, align 8
  %20 = load double, ptr %16, align 8
  %21 = getelementptr inbounds nuw i8, ptr %15, i64 32
  %22 = load double, ptr %21, align 8
  %23 = icmp eq i32 %6, 2
  %.idx26 = select i1 %23, i64 0, i64 -64
  %24 = getelementptr inbounds i8, ptr %0, i64 %.idx26
  %25 = getelementptr inbounds nuw i8, ptr %24, i64 56
  %26 = load ptr, ptr %25, align 8, !tbaa !48
  %27 = getelementptr inbounds nuw i8, ptr %26, i64 16
  %28 = load ptr, ptr %27, align 8, !tbaa !20
  %29 = getelementptr inbounds nuw i8, ptr %28, i64 32
  %30 = getelementptr inbounds nuw i8, ptr %15, i64 72
  %31 = load double, ptr %29, align 8
  %32 = getelementptr inbounds nuw i8, ptr %28, i64 40
  %33 = load double, ptr %32, align 8
  %34 = load double, ptr %30, align 8
  %35 = getelementptr inbounds nuw i8, ptr %15, i64 80
  %36 = load double, ptr %35, align 8
  br i1 %2, label %37, label %42

37:                                               ; preds = %3
  %38 = getelementptr inbounds nuw i8, ptr %12, i64 452
  %39 = load i32, ptr %38, align 4, !tbaa !86
  %40 = getelementptr inbounds nuw i8, ptr %28, i64 452
  %41 = load i32, ptr %40, align 4, !tbaa !86
  br label %42

42:                                               ; preds = %37, %3
  %.023 = phi i32 [ %41, %37 ], [ -1111, %3 ]
  %.0 = phi i32 [ %39, %37 ], [ -1111, %3 ]
  %43 = fadd double %33, %36
  %44 = fadd double %31, %34
  %45 = fadd double %19, %22
  %46 = fadd double %17, %20
  call void @Pobspath(ptr noundef %1, double %46, double %45, i32 noundef %.0, double %44, double %43, i32 noundef %.023, ptr noundef nonnull %4) #20
  %.fca.0.load = load ptr, ptr %4, align 8
  %.fca.0.insert = insertvalue { ptr, i64 } poison, ptr %.fca.0.load, 0
  %.fca.1.gep = getelementptr inbounds nuw i8, ptr %4, i64 8
  %.fca.1.load = load i64, ptr %.fca.1.gep, align 8
  %.fca.1.insert = insertvalue { ptr, i64 } %.fca.0.insert, i64 %.fca.1.load, 1
  ret { ptr, i64 } %.fca.1.insert
}